(dp0
S'1128'
p1
(dp2
S'pre'
p3
(lp4
I15935
aI1776
aI1679
aI19887
aI1599
aI13357
asS'con'
p5
(lp6
ssS'1826'
p7
(dp8
g3
(lp9
I1776
aI1599
aI3550
aI1201
aI19439
asg5
(lp10
ssS'1301'
p11
(dp12
g3
(lp13
I15935
aI3456
aI1776
aI1679
aI1599
asg5
(lp14
ssS'1325'
p15
(dp16
g3
(lp17
I368
aI382
aI29456
aI402
asg5
(lp18
I648
aI1394
aI1411
aI1413
aI1002
aI1199
aI1231
aI1042
aI833
aI24395
assS'1201'
p19
(dp20
g3
(lp21
I382
aI29456
aI366
aI474
aI402
asg5
(lp22
I971
aI1826
aI1199
aI833
aI859
assS'987'
p23
(dp24
g3
(lp25
I382
asg5
(lp26
I24395
assS'1288'
p27
(dp28
g3
(lp29
I19559
aI15935
aI3456
aI1809
aI17410
aI24908
asg5
(lp30
ssS'17410'
p31
(dp32
g3
(lp33
I382
asg5
(lp34
I815
aI1288
aI1199
assS'1893'
p35
(dp36
g3
(lp37
I29456
aI366
aI474
asg5
(lp38
I1411
aI1413
assS'1421'
p39
(dp40
g3
(lp41
I15935
aI19887
aI24378
asg5
(lp42
ssS'833'
p43
(dp44
g3
(lp45
I1325
aI19559
aI3456
aI1599
aI1201
aI17107
asg5
(lp46
ssS'24395'
p47
(dp48
g3
(lp49
I1325
aI24378
aI987
aI1808
asg5
(lp50
ssS'1776'
p51
(dp52
g3
(lp53
I408
aI382
aI366
asg5
(lp54
I1301
aI1826
aI911
aI918
aI1077
aI1128
aI815
aI1199
aI1078
aI1042
assS'3456'
p55
(dp56
g3
(lp57
I368
aI29456
aI402
asg5
(lp58
I1301
aI1245
aI1595
aI971
aI1077
aI1536
aI1537
aI1288
aI1078
aI833
assS'24378'
p59
(dp60
g3
(lp61
I368
aI408
aI382
aI29456
aI402
asg5
(lp62
I27611
aI1421
aI1411
aI1413
aI1042
aI24395
assS'971'
p63
(dp64
g3
(lp65
I19559
aI15935
aI3456
aI1679
aI13357
aI1242
aI1725
aI20664
aI1201
asg5
(lp66
ssS'3550'
p67
(dp68
g3
(lp69
I474
aI29456
asg5
(lp70
I1826
aI2073
aI1731
aI844
aI1534
aI1536
aI1537
aI1539
assS'1731'
p71
(dp72
g3
(lp73
I19559
aI1599
aI3550
aI5708
aI24908
asg5
(lp74
ssS'1077'
p75
(dp76
g3
(lp77
I3456
aI1776
aI13357
aI1808
aI17107
asg5
(lp78
ssS'17107'
p79
(dp80
g3
(lp81
I29456
aI474
asg5
(lp82
I1077
aI1024
aI815
aI1078
aI833
assS'859'
p83
(dp84
g3
(lp85
I1679
aI13357
aI1201
asg5
(lp86
ssS'918'
p87
(dp88
g3
(lp89
I19559
aI1776
aI1679
aI1725
aI19439
asg5
(lp90
ssS'1534'
p91
(dp92
g3
(lp93
I19559
aI15935
aI1679
aI1599
aI3550
asg5
(lp94
ssS'1018'
p95
(dp96
g3
(lp97
I368
aI366
aI402
asg5
(lp98
I1245
aI1595
aI1024
aI1002
aI1042
assS'402'
p99
(dp100
g3
(lp101
sg5
(lp102
I1325
aI19559
aI3456
aI19887
aI1599
aI13357
aI24378
aI1417
aI1018
aI20664
aI5708
aI1201
aI1808
aI19439
assS'368'
p103
(dp104
g3
(lp105
sg5
(lp106
I1325
aI19559
aI1599
aI3456
aI13357
aI1018
aI24378
aI987
aI1725
aI5033
aI19439
assS'366'
p107
(dp108
g3
(lp109
sg5
(lp110
I15935
aI1776
aI1679
aI19887
aI1599
aI1893
aI1018
aI1725
aI20664
aI1201
aI19439
aI24908
assS'24908'
p111
(dp112
g3
(lp113
I408
aI29456
aI366
aI474
asg5
(lp114
I27611
aI648
aI1411
aI1413
aI1731
aI844
aI1024
aI1002
aI1288
aI1199
aI1231
assS'1394'
p115
(dp116
g3
(lp117
I1325
aI19439
asg5
(lp118
ssS'911'
p119
(dp120
g3
(lp121
I19559
aI1776
aI1679
aI1599
aI1725
aI1809
aI19439
asg5
(lp122
ssS'815'
p123
(dp124
g3
(lp125
I1776
aI19887
aI19439
aI17410
aI17107
asg5
(lp126
ssS'408'
p127
(dp128
g3
(lp129
sg5
(lp130
I19559
aI15935
aI1679
aI1776
aI1599
aI24378
aI1417
aI11725
aI20664
aI1809
aI1808
aI24908
assS'19559'
p131
(dp132
g3
(lp133
I368
aI408
aI29456
aI474
aI402
asg5
(lp134
I648
aI1595
aI971
aI1731
aI911
aI918
aI1534
aI1288
aI1042
aI1078
aI833
assS'1199'
p135
(dp136
g3
(lp137
I1325
aI1776
aI1679
aI1599
aI1201
aI19439
aI17410
aI24908
asg5
(lp138
ssS'1231'
p139
(dp140
g3
(lp141
I1325
aI1599
aI1809
aI24908
asg5
(lp142
ssS'15935'
p143
(dp144
g3
(lp145
I408
aI382
aI366
aI474
asg5
(lp146
I1301
aI27611
aI1421
aI971
aI2073
aI1024
aI1128
aI1534
aI1536
aI1537
aI1539
aI1288
aI1042
assS'1042'
p147
(dp148
g3
(lp149
I1325
aI19559
aI15935
aI1776
aI19887
aI24378
aI1018
aI1725
aI20664
asg5
(lp150
ssS'19887'
p151
(dp152
g3
(lp153
I366
aI474
aI402
asg5
(lp154
I1421
aI1411
aI1413
aI1128
aI1539
aI815
aI1042
assS'1595'
p155
(dp156
g3
(lp157
I19559
aI3456
aI13357
aI1018
aI1242
aI1725
aI5708
aI19439
asg5
(lp158
ssS'2073'
p159
(dp160
g3
(lp161
I15935
aI3550
asg5
(lp162
ssS'382'
p163
(dp164
g3
(lp165
sg5
(lp166
I1325
aI15935
aI1776
aI1679
aI1599
aI24378
aI1417
aI987
aI1242
aI1725
aI1201
aI1808
aI19439
aI17410
assS'844'
p167
(dp168
g3
(lp169
I1599
aI3550
aI5708
aI19439
aI24908
asg5
(lp170
ssS'13357'
p171
(dp172
g3
(lp173
I474
aI402
asg5
(lp174
I1245
aI1595
aI971
aI1077
aI1128
aI859
aI1078
assS'1411'
p175
(dp176
g3
(lp177
I1325
aI19887
aI24378
aI1893
aI1417
aI19439
aI24908
asg5
(lp178
ssS'5708'
p179
(dp180
g3
(lp181
I402
asg5
(lp182
I1245
aI1595
aI1731
aI844
aI1539
assS'1599'
p183
(dp184
g3
(lp185
I368
aI408
aI382
aI29456
aI366
aI402
asg5
(lp186
I1301
aI1826
aI1731
aI844
aI911
aI1128
aI1534
aI1536
aI1537
aI1199
aI1231
aI833
assS'27611'
p187
(dp188
g3
(lp189
I15935
aI24378
aI19439
aI24308
asg5
(lp190
ssS'20664'
p191
(dp192
g3
(lp193
I408
aI29456
aI366
aI402
asg5
(lp194
I971
aI1024
aI1002
aI1042
assS'1024'
p195
(dp196
g3
(lp197
I1018
aI1242
aI20664
aI1808
aI17107
aI24908
asg5
(lp198
ssS'1413'
p199
(dp200
g3
(lp201
I1325
aI19887
aI24378
aI1893
aI1417
asg5
(lp202
ssS'1078'
p203
(dp204
g3
(lp205
I19559
aI3456
aI1776
aI13351
aI1809
aI1808
aI17107
asg5
(lp206
ssS'29456'
p207
(dp208
g3
(lp209
sg5
(lp210
I1325
aI19559
aI3456
aI1679
aI1599
aI24378
aI1893
aI1242
aI20664
aI3550
aI1201
aI1809
aI19439
aI17107
aI24908
assS'1725'
p211
(dp212
g3
(lp213
I368
aI382
aI366
asg5
(lp214
I1595
aI971
aI911
aI918
aI1002
aI1042
assS'1679'
p215
(dp216
g3
(lp217
I408
aI382
aI366
aI29456
aI474
asg5
(lp218
I1301
aI971
aI844
aI911
aI918
aI1128
aI1534
aI1536
aI1199
aI859
assS'1809'
p219
(dp220
g3
(lp221
I408
aI29456
aI474
asg5
(lp222
I844
aI911
aI1288
aI1231
aI1078
assS'1808'
p223
(dp224
g3
(lp225
I408
aI382
aI402
asg5
(lp226
I648
aI1077
aI1024
aI1537
aI1078
aI24395
assS'1537'
p227
(dp228
g3
(lp229
I15935
aI3456
aI1599
aI3550
aI1808
asg5
(lp230
ssS'1536'
p231
(dp232
g3
(lp233
I15935
aI3456
aI1679
aI1599
aI3550
asg5
(lp234
ssS'1242'
p235
(dp236
g3
(lp237
I382
aI29456
aI474
asg5
(lp238
I1245
aI1595
aI971
aI1024
assS'1245'
p239
(dp240
g3
(lp241
I3456
aI13357
aI1018
aI1242
aI5708
asg5
(lp242
ssS'474'
p243
(dp244
g3
(lp245
sg5
(lp246
I19559
aI15935
aI1679
aI19887
aI13357
aI1893
aI1417
aI1242
aI3550
aI1201
aI1809
aI19439
aI17107
aI24908
assS'648'
p247
(dp248
g3
(lp249
I1325
aI19559
aI1808
aI19439
aI24908
asg5
(lp250
ssS'19439'
p251
(dp252
g3
(lp253
I368
aI382
aI29456
aI366
aI474
aI402
asg5
(lp254
I27611
aI648
aI1411
aI1595
aI1394
aI1826
aI844
aI911
aI918
aI815
aI1002
aI1199
assS'1002'
p255
(dp256
g3
(lp257
I1325
aI1018
aI1725
aI20664
aI19439
aI24908
asg5
(lp258
ssS'1539'
p259
(dp260
g3
(lp261
I15935
aI19887
aI3550
aI5708
asg5
(lp262
ssS'1417'
p263
(dp264
g3
(lp265
I408
aI382
aI474
aI402
asg5
(lp266
I1411
aI1413
ass.